target datalayout = "e-m:e-p270:32:32-p271:32:32-p272:64:64-i64:64-i128:128-f80:128-n8:16:32:64-S128"
target triple = "x86_64-pc-linux-gnu"

%struct.git_istream = type { ptr, ptr, ptr, i64, %struct.git_zstream, i32, %union.anon }
%struct.git_zstream = type { %struct.z_stream_s, i64, i64, i64, i64, ptr, ptr }
%struct.z_stream_s = type { ptr, i32, i64, ptr, i32, i64, ptr, ptr, ptr, ptr, ptr, i32, i64, i64 }
%union.anon = type { %struct.filtered_istream }
%struct.filtered_istream = type { ptr, ptr, [16384 x i8], [16384 x i8], i32, i32, i32, i32, i32 }
%struct.repository = type { ptr, ptr, ptr, ptr, ptr, %struct.strmap, %struct.strmap, %struct.repo_path_cache, ptr, ptr, ptr, ptr, %struct.repo_settings, ptr, ptr, ptr, ptr, ptr, ptr, i32, i32, i32, ptr, ptr, i32, i32, i8 }
%struct.strmap = type { %struct.hashmap, ptr, i8 }
%struct.hashmap = type { ptr, ptr, ptr, i32, i32, i32, i32, i8 }
%struct.repo_path_cache = type { ptr, ptr, ptr, ptr, ptr, ptr, ptr }
%struct.repo_settings = type { i32, i32, i32, i32, i32, i32, i32, i32, i32, i32, i32, i32, ptr, i32, i32, i32, i32, i32, i32, i32, i64, i64, i64 }
%struct.raw_object_store = type { ptr, ptr, ptr, i32, ptr, ptr, i8, %union.pthread_mutex_t, ptr, i8, ptr, ptr, %struct.list_head, %struct.anon.2, %struct.hashmap, i64, i8 }
%union.pthread_mutex_t = type { %struct.__pthread_mutex_s }
%struct.__pthread_mutex_s = type { i32, i32, i32, i32, i32, i16, i16, %struct.__pthread_internal_list }
%struct.__pthread_internal_list = type { ptr, ptr }
%struct.list_head = type { ptr, ptr }
%struct.anon.2 = type { ptr, i32 }
%struct.oidmap = type { %struct.hashmap }
%struct.object_info = type { ptr, ptr, ptr, ptr, ptr, ptr, i32, %union.anon.3 }
%union.anon.3 = type { %struct.anon.4 }
%struct.anon.4 = type { ptr, i64, i32 }
%struct.anon.1 = type { ptr, i64 }
%struct.anon = type { ptr, i64 }

@big_file_threshold = external global i64, align 8

; Function Attrs: nounwind uwtable
define dso_local i32 @close_istream(ptr noundef %0) #0 {
  %2 = alloca ptr, align 8
  %3 = alloca i32, align 4
  store ptr %0, ptr %2, align 8, !tbaa !4
  call void @llvm.lifetime.start.p0(i64 4, ptr %3) #8
  %4 = load ptr, ptr %2, align 8, !tbaa !4
  %5 = getelementptr inbounds nuw %struct.git_istream, ptr %4, i32 0, i32 1
  %6 = load ptr, ptr %5, align 8, !tbaa !9
  %7 = load ptr, ptr %2, align 8, !tbaa !4
  %8 = call i32 %6(ptr noundef %7)
  store i32 %8, ptr %3, align 4, !tbaa !17
  %9 = load ptr, ptr %2, align 8, !tbaa !4
  call void @free(ptr noundef %9) #8
  %10 = load i32, ptr %3, align 4, !tbaa !17
  call void @llvm.lifetime.end.p0(i64 4, ptr %3) #8
  ret i32 %10
}

; Function Attrs: nounwind uwtable
define internal ptr @attach_stream_filter(ptr noundef %0, ptr noundef %1) #0 {
  %3 = alloca ptr, align 8
  %4 = alloca ptr, align 8
  %5 = alloca ptr, align 8
  %6 = alloca ptr, align 8
  store ptr %0, ptr %3, align 8, !tbaa !4
  store ptr %1, ptr %4, align 8, !tbaa !27
  call void @llvm.lifetime.start.p0(i64 8, ptr %5) #8
  %7 = call ptr @xmalloc(i64 noundef 33008)
  store ptr %7, ptr %5, align 8, !tbaa !4
  call void @llvm.lifetime.start.p0(i64 8, ptr %6) #8
  %8 = load ptr, ptr %5, align 8, !tbaa !4
  %9 = getelementptr inbounds nuw %struct.git_istream, ptr %8, i32 0, i32 6
  store ptr %9, ptr %6, align 8, !tbaa !71
  %10 = load ptr, ptr %5, align 8, !tbaa !4
  %11 = getelementptr inbounds nuw %struct.git_istream, ptr %10, i32 0, i32 1
  store ptr @close_istream_filtered, ptr %11, align 8, !tbaa !9
  %12 = load ptr, ptr %5, align 8, !tbaa !4
  %13 = getelementptr inbounds nuw %struct.git_istream, ptr %12, i32 0, i32 2
  store ptr @read_istream_filtered, ptr %13, align 8, !tbaa !20
  %14 = load ptr, ptr %3, align 8, !tbaa !4
  %15 = load ptr, ptr %6, align 8, !tbaa !71
  %16 = getelementptr inbounds nuw %struct.filtered_istream, ptr %15, i32 0, i32 0
  store ptr %14, ptr %16, align 8, !tbaa !73
  %17 = load ptr, ptr %4, align 8, !tbaa !27
  %18 = load ptr, ptr %6, align 8, !tbaa !71
  %19 = getelementptr inbounds nuw %struct.filtered_istream, ptr %18, i32 0, i32 1
  store ptr %17, ptr %19, align 8, !tbaa !75
  %20 = load ptr, ptr %6, align 8, !tbaa !71
  %21 = getelementptr inbounds nuw %struct.filtered_istream, ptr %20, i32 0, i32 5
  store i32 0, ptr %21, align 4, !tbaa !76
  %22 = load ptr, ptr %6, align 8, !tbaa !71
  %23 = getelementptr inbounds nuw %struct.filtered_istream, ptr %22, i32 0, i32 4
  store i32 0, ptr %23, align 8, !tbaa !77
  %24 = load ptr, ptr %6, align 8, !tbaa !71
  %25 = getelementptr inbounds nuw %struct.filtered_istream, ptr %24, i32 0, i32 7
  store i32 0, ptr %25, align 4, !tbaa !78
  %26 = load ptr, ptr %6, align 8, !tbaa !71
  %27 = getelementptr inbounds nuw %struct.filtered_istream, ptr %26, i32 0, i32 6
  store i32 0, ptr %27, align 8, !tbaa !79
  %28 = load ptr, ptr %6, align 8, !tbaa !71
  %29 = getelementptr inbounds nuw %struct.filtered_istream, ptr %28, i32 0, i32 8
  store i32 0, ptr %29, align 8, !tbaa !80
  %30 = load ptr, ptr %5, align 8, !tbaa !4
  %31 = getelementptr inbounds nuw %struct.git_istream, ptr %30, i32 0, i32 3
  store i64 -1, ptr %31, align 8, !tbaa !30
  %32 = load ptr, ptr %5, align 8, !tbaa !4
  call void @llvm.lifetime.end.p0(i64 8, ptr %6) #8
  call void @llvm.lifetime.end.p0(i64 8, ptr %5) #8
  ret ptr %32
}

; Function Attrs: nounwind uwtable
define internal i32 @open_istream_incore(ptr noundef %0, ptr noundef %1, ptr noundef %2, ptr noundef %3) #0 {
  %5 = alloca ptr, align 8
  %6 = alloca ptr, align 8
  %7 = alloca ptr, align 8
  %8 = alloca ptr, align 8
  %9 = alloca %struct.object_info, align 8
  store ptr %0, ptr %5, align 8, !tbaa !4
  store ptr %1, ptr %6, align 8, !tbaa !21
  store ptr %2, ptr %7, align 8, !tbaa !23
  store ptr %3, ptr %8, align 8, !tbaa !18
  call void @llvm.lifetime.start.p0(i64 80, ptr %9) #8
  call void @llvm.memset.p0.i64(ptr align 8 %9, i8 0, i64 80, i1 false)
  %10 = load ptr, ptr %5, align 8, !tbaa !4
  %11 = getelementptr inbounds nuw %struct.git_istream, ptr %10, i32 0, i32 6
  %12 = getelementptr inbounds nuw %struct.anon, ptr %11, i32 0, i32 1
  store i64 0, ptr %12, align 8, !tbaa !69
  %13 = load ptr, ptr %5, align 8, !tbaa !4
  %14 = getelementptr inbounds nuw %struct.git_istream, ptr %13, i32 0, i32 1
  store ptr @close_istream_incore, ptr %14, align 8, !tbaa !9
  %15 = load ptr, ptr %5, align 8, !tbaa !4
  %16 = getelementptr inbounds nuw %struct.git_istream, ptr %15, i32 0, i32 2
  store ptr @read_istream_incore, ptr %16, align 8, !tbaa !20
  %17 = load ptr, ptr %8, align 8, !tbaa !18
  %18 = getelementptr inbounds nuw %struct.object_info, ptr %9, i32 0, i32 0
  store ptr %17, ptr %18, align 8, !tbaa !64
  %19 = load ptr, ptr %5, align 8, !tbaa !4
  %20 = getelementptr inbounds nuw %struct.git_istream, ptr %19, i32 0, i32 3
  %21 = getelementptr inbounds nuw %struct.object_info, ptr %9, i32 0, i32 1
  store ptr %20, ptr %21, align 8, !tbaa !67
  %22 = load ptr, ptr %5, align 8, !tbaa !4
  %23 = getelementptr inbounds nuw %struct.git_istream, ptr %22, i32 0, i32 6
  %24 = getelementptr inbounds nuw %struct.anon, ptr %23, i32 0, i32 0
  %25 = getelementptr inbounds nuw %struct.object_info, ptr %9, i32 0, i32 5
  store ptr %24, ptr %25, align 8, !tbaa !70
  %26 = load ptr, ptr %6, align 8, !tbaa !21
  %27 = load ptr, ptr %7, align 8, !tbaa !23
  %28 = call i32 @oid_object_info_extended(ptr noundef %26, ptr noundef %27, ptr noundef %9, i32 noundef 32)
  call void @llvm.lifetime.end.p0(i64 80, ptr %9) #8
  ret i32 %28
}

; Function Attrs: nounwind uwtable
define internal i32 @istream_source(ptr noundef %0, ptr noundef %1, ptr noundef %2, ptr noundef %3) #0 {
  %5 = alloca i32, align 4
  %6 = alloca ptr, align 8
  %7 = alloca ptr, align 8
  %8 = alloca ptr, align 8
  %9 = alloca ptr, align 8
  %10 = alloca i64, align 8
  %11 = alloca i32, align 4
  %12 = alloca %struct.object_info, align 8
  %13 = alloca i32, align 4
  store ptr %0, ptr %6, align 8, !tbaa !4
  store ptr %1, ptr %7, align 8, !tbaa !21
  store ptr %2, ptr %8, align 8, !tbaa !23
  store ptr %3, ptr %9, align 8, !tbaa !18
  call void @llvm.lifetime.start.p0(i64 8, ptr %10) #8
  call void @llvm.lifetime.start.p0(i64 4, ptr %11) #8
  call void @llvm.lifetime.start.p0(i64 80, ptr %12) #8
  call void @llvm.memset.p0.i64(ptr align 8 %12, i8 0, i64 80, i1 false)
  %14 = load ptr, ptr %9, align 8, !tbaa !18
  %15 = getelementptr inbounds nuw %struct.object_info, ptr %12, i32 0, i32 0
  store ptr %14, ptr %15, align 8, !tbaa !64
  %16 = getelementptr inbounds nuw %struct.object_info, ptr %12, i32 0, i32 1
  store ptr %10, ptr %16, align 8, !tbaa !67
  %17 = load ptr, ptr %7, align 8, !tbaa !21
  %18 = load ptr, ptr %8, align 8, !tbaa !23
  %19 = call i32 @oid_object_info_extended(ptr noundef %17, ptr noundef %18, ptr noundef %12, i32 noundef 0)
  store i32 %19, ptr %11, align 4, !tbaa !17
  %20 = load i32, ptr %11, align 4, !tbaa !17
  %21 = icmp slt i32 %20, 0
  br i1 %21, label %22, label %24

22:                                               ; preds = %4
  %23 = load i32, ptr %11, align 4, !tbaa !17
  store i32 %23, ptr %5, align 4
  store i32 1, ptr %13, align 4
  br label %58

24:                                               ; preds = %4
  %25 = getelementptr inbounds nuw %struct.object_info, ptr %12, i32 0, i32 6
  %26 = load i32, ptr %25, align 8, !tbaa !68
  switch i32 %26, label %55 [
    i32 1, label %27
    i32 2, label %30
  ]

27:                                               ; preds = %24
  %28 = load ptr, ptr %6, align 8, !tbaa !4
  %29 = getelementptr inbounds nuw %struct.git_istream, ptr %28, i32 0, i32 0
  store ptr @open_istream_loose, ptr %29, align 8, !tbaa !29
  store i32 0, ptr %5, align 4
  store i32 1, ptr %13, align 4
  br label %58

30:                                               ; preds = %24
  %31 = getelementptr inbounds nuw %struct.object_info, ptr %12, i32 0, i32 7
  %32 = getelementptr inbounds nuw %struct.anon.4, ptr %31, i32 0, i32 2
  %33 = load i32, ptr %32, align 8, !tbaa !69
  %34 = icmp ne i32 %33, 0
  br i1 %34, label %54, label %35

35:                                               ; preds = %30
  %36 = load i64, ptr @big_file_threshold, align 8, !tbaa !19
  %37 = load i64, ptr %10, align 8, !tbaa !19
  %38 = icmp ult i64 %36, %37
  br i1 %38, label %39, label %54

39:                                               ; preds = %35
  %40 = getelementptr inbounds nuw %struct.object_info, ptr %12, i32 0, i32 7
  %41 = getelementptr inbounds nuw %struct.anon.4, ptr %40, i32 0, i32 0
  %42 = load ptr, ptr %41, align 8, !tbaa !69
  %43 = load ptr, ptr %6, align 8, !tbaa !4
  %44 = getelementptr inbounds nuw %struct.git_istream, ptr %43, i32 0, i32 6
  %45 = getelementptr inbounds nuw %struct.anon.1, ptr %44, i32 0, i32 0
  store ptr %42, ptr %45, align 8, !tbaa !69
  %46 = getelementptr inbounds nuw %struct.object_info, ptr %12, i32 0, i32 7
  %47 = getelementptr inbounds nuw %struct.anon.4, ptr %46, i32 0, i32 1
  %48 = load i64, ptr %47, align 8, !tbaa !69
  %49 = load ptr, ptr %6, align 8, !tbaa !4
  %50 = getelementptr inbounds nuw %struct.git_istream, ptr %49, i32 0, i32 6
  %51 = getelementptr inbounds nuw %struct.anon.1, ptr %50, i32 0, i32 1
  store i64 %48, ptr %51, align 8, !tbaa !69
  %52 = load ptr, ptr %6, align 8, !tbaa !4
  %53 = getelementptr inbounds nuw %struct.git_istream, ptr %52, i32 0, i32 0
  store ptr @open_istream_pack_non_delta, ptr %53, align 8, !tbaa !29
  store i32 0, ptr %5, align 4
  store i32 1, ptr %13, align 4
  br label %58

54:                                               ; preds = %35, %30
  br label %55

55:                                               ; preds = %24, %54
  %56 = load ptr, ptr %6, align 8, !tbaa !4
  %57 = getelementptr inbounds nuw %struct.git_istream, ptr %56, i32 0, i32 0
  store ptr @open_istream_incore, ptr %57, align 8, !tbaa !29
  store i32 0, ptr %5, align 4
  store i32 1, ptr %13, align 4
  br label %58

58:                                               ; preds = %55, %39, %27, %22
  call void @llvm.lifetime.end.p0(i64 80, ptr %12) #8
  call void @llvm.lifetime.end.p0(i64 4, ptr %11) #8
  call void @llvm.lifetime.end.p0(i64 8, ptr %10) #8
  %59 = load i32, ptr %5, align 4
  ret i32 %59
}

; Function Attrs: inlinehint nounwind uwtable
define internal ptr @lookup_replace_object(ptr noundef %0, ptr noundef %1) #4 {
  %3 = alloca ptr, align 8
  %4 = alloca ptr, align 8
  %5 = alloca ptr, align 8
  store ptr %0, ptr %4, align 8, !tbaa !21
  store ptr %1, ptr %5, align 8, !tbaa !23
  %6 = load ptr, ptr %4, align 8, !tbaa !21
  %7 = call i32 @replace_refs_enabled(ptr noundef %6)
  %8 = icmp ne i32 %7, 0
  br i1 %8, label %9, label %28

9:                                                ; preds = %2
  %10 = load ptr, ptr %4, align 8, !tbaa !21
  %11 = getelementptr inbounds nuw %struct.repository, ptr %10, i32 0, i32 2
  %12 = load ptr, ptr %11, align 8, !tbaa !31
  %13 = getelementptr inbounds nuw %struct.raw_object_store, ptr %12, i32 0, i32 6
  %14 = load i8, ptr %13, align 8
  %15 = and i8 %14, 1
  %16 = zext i8 %15 to i32
  %17 = icmp ne i32 %16, 0
  br i1 %17, label %18, label %30

18:                                               ; preds = %9
  %19 = load ptr, ptr %4, align 8, !tbaa !21
  %20 = getelementptr inbounds nuw %struct.repository, ptr %19, i32 0, i32 2
  %21 = load ptr, ptr %20, align 8, !tbaa !31
  %22 = getelementptr inbounds nuw %struct.raw_object_store, ptr %21, i32 0, i32 5
  %23 = load ptr, ptr %22, align 8, !tbaa !49
  %24 = getelementptr inbounds nuw %struct.oidmap, ptr %23, i32 0, i32 0
  %25 = getelementptr inbounds nuw %struct.hashmap, ptr %24, i32 0, i32 4
  %26 = load i32, ptr %25, align 4, !tbaa !62
  %27 = icmp eq i32 %26, 0
  br i1 %27, label %28, label %30

28:                                               ; preds = %18, %2
  %29 = load ptr, ptr %5, align 8, !tbaa !23
  store ptr %29, ptr %3, align 8
  br label %34

30:                                               ; preds = %18, %9
  %31 = load ptr, ptr %4, align 8, !tbaa !21
  %32 = load ptr, ptr %5, align 8, !tbaa !23
  %33 = call ptr @do_lookup_replace_object(ptr noundef %31, ptr noundef %32)
  store ptr %33, ptr %3, align 8
  br label %34

34:                                               ; preds = %30, %28
  %35 = load ptr, ptr %3, align 8
  ret ptr %35
}

; Function Attrs: nounwind uwtable
define dso_local ptr @open_istream(ptr noundef %0, ptr noundef %1, ptr noundef %2, ptr noundef %3, ptr noundef %4) #0 {
  %6 = alloca ptr, align 8
  %7 = alloca ptr, align 8
  %8 = alloca ptr, align 8
  %9 = alloca ptr, align 8
  %10 = alloca ptr, align 8
  %11 = alloca ptr, align 8
  %12 = alloca ptr, align 8
  %13 = alloca ptr, align 8
  %14 = alloca i32, align 4
  %15 = alloca i32, align 4
  %16 = alloca ptr, align 8
  store ptr %0, ptr %7, align 8, !tbaa !21
  store ptr %1, ptr %8, align 8, !tbaa !23
  store ptr %2, ptr %9, align 8, !tbaa !18
  store ptr %3, ptr %10, align 8, !tbaa !25
  store ptr %4, ptr %11, align 8, !tbaa !27
  call void @llvm.lifetime.start.p0(i64 8, ptr %12) #8
  %17 = call ptr @xmalloc(i64 noundef 33008)
  store ptr %17, ptr %12, align 8, !tbaa !4
  call void @llvm.lifetime.start.p0(i64 8, ptr %13) #8
  %18 = load ptr, ptr %7, align 8, !tbaa !21
  %19 = load ptr, ptr %8, align 8, !tbaa !23
  %20 = call ptr @lookup_replace_object(ptr noundef %18, ptr noundef %19)
  store ptr %20, ptr %13, align 8, !tbaa !23
  call void @llvm.lifetime.start.p0(i64 4, ptr %14) #8
  %21 = load ptr, ptr %12, align 8, !tbaa !4
  %22 = load ptr, ptr %7, align 8, !tbaa !21
  %23 = load ptr, ptr %13, align 8, !tbaa !23
  %24 = load ptr, ptr %9, align 8, !tbaa !18
  %25 = call i32 @istream_source(ptr noundef %21, ptr noundef %22, ptr noundef %23, ptr noundef %24)
  store i32 %25, ptr %14, align 4, !tbaa !17
  %26 = load i32, ptr %14, align 4, !tbaa !17
  %27 = icmp ne i32 %26, 0
  br i1 %27, label %28, label %30

28:                                               ; preds = %5
  %29 = load ptr, ptr %12, align 8, !tbaa !4
  call void @free(ptr noundef %29) #8
  store ptr null, ptr %6, align 8
  store i32 1, ptr %15, align 4
  br label %73

30:                                               ; preds = %5
  %31 = load ptr, ptr %12, align 8, !tbaa !4
  %32 = getelementptr inbounds nuw %struct.git_istream, ptr %31, i32 0, i32 0
  %33 = load ptr, ptr %32, align 8, !tbaa !29
  %34 = load ptr, ptr %12, align 8, !tbaa !4
  %35 = load ptr, ptr %7, align 8, !tbaa !21
  %36 = load ptr, ptr %13, align 8, !tbaa !23
  %37 = load ptr, ptr %9, align 8, !tbaa !18
  %38 = call i32 %33(ptr noundef %34, ptr noundef %35, ptr noundef %36, ptr noundef %37)
  %39 = icmp ne i32 %38, 0
  br i1 %39, label %40, label %50

40:                                               ; preds = %30
  %41 = load ptr, ptr %12, align 8, !tbaa !4
  %42 = load ptr, ptr %7, align 8, !tbaa !21
  %43 = load ptr, ptr %13, align 8, !tbaa !23
  %44 = load ptr, ptr %9, align 8, !tbaa !18
  %45 = call i32 @open_istream_incore(ptr noundef %41, ptr noundef %42, ptr noundef %43, ptr noundef %44)
  %46 = icmp ne i32 %45, 0
  br i1 %46, label %47, label %49

47:                                               ; preds = %40
  %48 = load ptr, ptr %12, align 8, !tbaa !4
  call void @free(ptr noundef %48) #8
  store ptr null, ptr %6, align 8
  store i32 1, ptr %15, align 4
  br label %73

49:                                               ; preds = %40
  br label %50

50:                                               ; preds = %49, %30
  %51 = load ptr, ptr %11, align 8, !tbaa !27
  %52 = icmp ne ptr %51, null
  br i1 %52, label %53, label %67

53:                                               ; preds = %50
  call void @llvm.lifetime.start.p0(i64 8, ptr %16) #8
  %54 = load ptr, ptr %12, align 8, !tbaa !4
  %55 = load ptr, ptr %11, align 8, !tbaa !27
  %56 = call ptr @attach_stream_filter(ptr noundef %54, ptr noundef %55)
  store ptr %56, ptr %16, align 8, !tbaa !4
  %57 = load ptr, ptr %16, align 8, !tbaa !4
  %58 = icmp ne ptr %57, null
  br i1 %58, label %62, label %59

59:                                               ; preds = %53
  %60 = load ptr, ptr %12, align 8, !tbaa !4
  %61 = call i32 @close_istream(ptr noundef %60)
  store ptr null, ptr %6, align 8
  store i32 1, ptr %15, align 4
  br label %64

62:                                               ; preds = %53
  %63 = load ptr, ptr %16, align 8, !tbaa !4
  store ptr %63, ptr %12, align 8, !tbaa !4
  store i32 0, ptr %15, align 4
  br label %64

64:                                               ; preds = %62, %59
  call void @llvm.lifetime.end.p0(i64 8, ptr %16) #8
  %65 = load i32, ptr %15, align 4
  switch i32 %65, label %73 [
    i32 0, label %66
  ]

66:                                               ; preds = %64
  br label %67

67:                                               ; preds = %66, %50
  %68 = load ptr, ptr %12, align 8, !tbaa !4
  %69 = getelementptr inbounds nuw %struct.git_istream, ptr %68, i32 0, i32 3
  %70 = load i64, ptr %69, align 8, !tbaa !30
  %71 = load ptr, ptr %10, align 8, !tbaa !25
  store i64 %70, ptr %71, align 8, !tbaa !19
  %72 = load ptr, ptr %12, align 8, !tbaa !4
  store ptr %72, ptr %6, align 8
  store i32 1, ptr %15, align 4
  br label %73

73:                                               ; preds = %67, %64, %47, %28
  call void @llvm.lifetime.end.p0(i64 4, ptr %14) #8
  call void @llvm.lifetime.end.p0(i64 8, ptr %13) #8
  call void @llvm.lifetime.end.p0(i64 8, ptr %12) #8
  %74 = load ptr, ptr %6, align 8
  ret ptr %74
}