; Function Attrs: nounwind uwtable
define dso_local ptr @open_istream(ptr noundef %0, ptr noundef %1, ptr noundef %2, ptr noundef writeonly captures(none) %3, ptr noundef %4) local_unnamed_addr #0 {
  %6 = alloca %struct.object_info, align 8
  %7 = alloca i64, align 8
  %8 = alloca %struct.object_info, align 8
  %9 = tail call ptr @xmalloc(i64 noundef 33008) #11
  %10 = tail call i32 @replace_refs_enabled(ptr noundef %0) #11
  %.not.i = icmp eq i32 %10, 0
  br i1 %.not.i, label %lookup_replace_object.exit, label %11

11:                                               ; preds = %5
  %12 = getelementptr inbounds nuw i8, ptr %0, i64 16
  %13 = load ptr, ptr %12, align 8, !tbaa !16
  %14 = getelementptr inbounds nuw i8, ptr %13, i64 48
  %15 = load i8, ptr %14, align 8
  %16 = and i8 %15, 1
  %.not7.i = icmp eq i8 %16, 0
  br i1 %.not7.i, label %23, label %17

17:                                               ; preds = %11
  %18 = getelementptr inbounds nuw i8, ptr %13, i64 40
  %19 = load ptr, ptr %18, align 8, !tbaa !34
  %20 = getelementptr inbounds nuw i8, ptr %19, i64 28
  %21 = load i32, ptr %20, align 4, !tbaa !47
  %22 = icmp eq i32 %21, 0
  br i1 %22, label %lookup_replace_object.exit, label %23

23:                                               ; preds = %17, %11
  %24 = tail call ptr @do_lookup_replace_object(ptr noundef nonnull %0, ptr noundef %1) #11
  br label %lookup_replace_object.exit

lookup_replace_object.exit:                       ; preds = %5, %17, %23
  %.0.i = phi ptr [ %24, %23 ], [ %1, %17 ], [ %1, %5 ]
  call void @llvm.lifetime.start.p0(i64 8, ptr nonnull %7) #11
  call void @llvm.lifetime.start.p0(i64 80, ptr nonnull %8) #11
  %25 = getelementptr inbounds nuw i8, ptr %8, i64 16
  call void @llvm.memset.p0.i64(ptr noundef nonnull align 8 dereferenceable(80) %25, i8 0, i64 64, i1 false)
  store ptr %2, ptr %8, align 8, !tbaa !49
  %26 = getelementptr inbounds nuw i8, ptr %8, i64 8
  store ptr %7, ptr %26, align 8, !tbaa !54
  %27 = call i32 @oid_object_info_extended(ptr noundef %0, ptr noundef %.0.i, ptr noundef nonnull %8, i32 noundef 0) #11
  %28 = icmp slt i32 %27, 0
  br i1 %28, label %47, label %29

29:                                               ; preds = %lookup_replace_object.exit
  %30 = getelementptr inbounds nuw i8, ptr %8, i64 48
  %31 = load i32, ptr %30, align 8, !tbaa !55
  switch i32 %31, label %46 [
    i32 1, label %48
    i32 2, label %32
  ]

32:                                               ; preds = %29
  %33 = getelementptr inbounds nuw i8, ptr %8, i64 56
  %34 = getelementptr inbounds nuw i8, ptr %8, i64 72
  %35 = load i32, ptr %34, align 8, !tbaa !56
  %.not.i37 = icmp eq i32 %35, 0
  br i1 %.not.i37, label %36, label %46

36:                                               ; preds = %32
  %37 = load i64, ptr @big_file_threshold, align 8, !tbaa !57
  %38 = load i64, ptr %7, align 8, !tbaa !57
  %39 = icmp ult i64 %37, %38
  br i1 %39, label %40, label %46

40:                                               ; preds = %36
  %41 = load ptr, ptr %33, align 8, !tbaa !56
  %42 = getelementptr inbounds nuw i8, ptr %9, i64 200
  store ptr %41, ptr %42, align 8, !tbaa !56
  %43 = getelementptr inbounds nuw i8, ptr %8, i64 64
  %44 = load i64, ptr %43, align 8, !tbaa !56
  %45 = getelementptr inbounds nuw i8, ptr %9, i64 208
  store i64 %44, ptr %45, align 8, !tbaa !56
  br label %48

46:                                               ; preds = %36, %32, %29
  br label %48

47:                                               ; preds = %lookup_replace_object.exit
  call void @llvm.lifetime.end.p0(i64 80, ptr nonnull %8) #11
  call void @llvm.lifetime.end.p0(i64 8, ptr nonnull %7) #11
  call void @free(ptr noundef %9) #11
  br label %72

48:                                               ; preds = %29, %40, %46
  %open_istream_incore.sink.i = phi ptr [ @open_istream_incore, %46 ], [ @open_istream_pack_non_delta, %40 ], [ @open_istream_loose, %29 ]
  store ptr %open_istream_incore.sink.i, ptr %9, align 8, !tbaa !58
  call void @llvm.lifetime.end.p0(i64 80, ptr nonnull %8) #11
  call void @llvm.lifetime.end.p0(i64 8, ptr nonnull %7) #11
  %49 = call i32 %open_istream_incore.sink.i(ptr noundef nonnull %9, ptr noundef %0, ptr noundef %.0.i, ptr noundef %2) #11
  %.not33 = icmp eq i32 %49, 0
  br i1 %.not33, label %61, label %50

50:                                               ; preds = %48
  call void @llvm.lifetime.start.p0(i64 80, ptr nonnull %6) #11
  %51 = getelementptr inbounds nuw i8, ptr %6, i64 16
  call void @llvm.memset.p0.i64(ptr noundef nonnull align 8 dereferenceable(80) %51, i8 0, i64 64, i1 false)
  %52 = getelementptr inbounds nuw i8, ptr %9, i64 200
  %53 = getelementptr inbounds nuw i8, ptr %9, i64 208
  store i64 0, ptr %53, align 8, !tbaa !56
  %54 = getelementptr inbounds nuw i8, ptr %9, i64 8
  store ptr @close_istream_incore, ptr %54, align 8, !tbaa !4
  %55 = getelementptr inbounds nuw i8, ptr %9, i64 16
  store ptr @read_istream_incore, ptr %55, align 8, !tbaa !15
  store ptr %2, ptr %6, align 8, !tbaa !49
  %56 = getelementptr inbounds nuw i8, ptr %9, i64 24
  %57 = getelementptr inbounds nuw i8, ptr %6, i64 8
  store ptr %56, ptr %57, align 8, !tbaa !54
  %58 = getelementptr inbounds nuw i8, ptr %6, i64 40
  store ptr %52, ptr %58, align 8, !tbaa !59
  %59 = call i32 @oid_object_info_extended(ptr noundef %0, ptr noundef %.0.i, ptr noundef nonnull %6, i32 noundef 32) #11
  call void @llvm.lifetime.end.p0(i64 80, ptr nonnull %6) #11
  %.not34 = icmp eq i32 %59, 0
  br i1 %.not34, label %61, label %60

60:                                               ; preds = %50
  call void @free(ptr noundef nonnull %9) #11
  br label %72

61:                                               ; preds = %50, %48
  %.not35 = icmp eq ptr %4, null
  br i1 %.not35, label %._crit_edge, label %62

._crit_edge:                                      ; preds = %61
  %.phi.trans.insert = getelementptr inbounds nuw i8, ptr %9, i64 24
  %.pre = load i64, ptr %.phi.trans.insert, align 8, !tbaa !60
  br label %70

62:                                               ; preds = %61
  %63 = call ptr @xmalloc(i64 noundef 33008) #11
  %64 = getelementptr inbounds nuw i8, ptr %63, i64 200
  %65 = getelementptr inbounds nuw i8, ptr %63, i64 8
  store ptr @close_istream_filtered, ptr %65, align 8, !tbaa !4
  %66 = getelementptr inbounds nuw i8, ptr %63, i64 16
  store ptr @read_istream_filtered, ptr %66, align 8, !tbaa !15
  store ptr %9, ptr %64, align 8, !tbaa !61
  %67 = getelementptr inbounds nuw i8, ptr %63, i64 208
  store ptr %4, ptr %67, align 8, !tbaa !65
  %68 = getelementptr inbounds nuw i8, ptr %63, i64 32984
  %69 = getelementptr inbounds nuw i8, ptr %63, i64 24
  call void @llvm.memset.p0.i64(ptr noundef nonnull align 8 dereferenceable(20) %68, i8 0, i64 20, i1 false)
  store i64 -1, ptr %69, align 8, !tbaa !60
  br label %70

70:                                               ; preds = %._crit_edge, %62
  %71 = phi i64 [ -1, %62 ], [ %.pre, %._crit_edge ]
  %.029 = phi ptr [ %63, %62 ], [ %9, %._crit_edge ]
  store i64 %71, ptr %3, align 8, !tbaa !57
  br label %72

72:                                               ; preds = %70, %60, %47
  %.0 = phi ptr [ null, %47 ], [ null, %60 ], [ %.029, %70 ]
  ret ptr %.0
}